; Function Attrs: nounwind uwtable
define hidden noundef i32 @boost_cont_sync_lock(ptr noundef %0) local_unnamed_addr #0 {
  %2 = atomicrmw xchg ptr %0, i32 1 seq_cst, align 4
  %.not = icmp eq i32 %2, 0
  br i1 %.not, label %spin_acquire_lock.exit, label %.preheader

.preheader:                                       ; preds = %1, %.preheader.backedge
  %.0.i = phi i32 [ %6, %.preheader.backedge ], [ 0, %1 ]
  %3 = load volatile i32, ptr %0, align 4, !tbaa !13
  %.not.i = icmp eq i32 %3, 0
  br i1 %.not.i, label %4, label %.critedge.i

4:                                                ; preds = %.preheader
  %5 = atomicrmw xchg ptr %0, i32 1 seq_cst, align 4
  %.not2.i = icmp eq i32 %5, 0
  br i1 %.not2.i, label %spin_acquire_lock.exit, label %.critedge.i

.critedge.i:                                      ; preds = %4, %.preheader
  %6 = add nuw nsw i32 %.0.i, 1
  %7 = and i32 %6, 63
  %8 = icmp eq i32 %7, 0
  br i1 %8, label %9, label %.preheader.backedge

9:                                                ; preds = %.critedge.i
  %10 = tail call i32 @sched_yield() #17
  br label %.preheader.backedge

.preheader.backedge:                              ; preds = %9, %.critedge.i
  br label %.preheader, !llvm.loop !14

spin_acquire_lock.exit:                           ; preds = %4, %1
  ret i32 1
}